target datalayout = "e-m:e-p270:32:32-p271:32:32-p272:64:64-i64:64-i128:128-f80:128-n8:16:32:64-S128"
target triple = "x86_64-pc-linux-gnu"

@g_assert_poison = external global ptr, align 8
@.str.4 = private unnamed_addr constant [39 x i8] c"src/hotspot/cpu/x86/nativeInst_x86.cpp\00", align 1
@.str.21 = private unnamed_addr constant [68 x i8] c"guarantee(((uintptr_t) verified_entry & (wordSize -1)) == 0) failed\00", align 1
@.str.22 = private unnamed_addr constant [36 x i8] c"illegal address for code patching 2\00", align 1
@.str.23 = private unnamed_addr constant [103 x i8] c"guarantee((uintptr_t) verified_entry / linesize == ((uintptr_t) verified_entry + 4) / linesize) failed\00", align 1
@.str.24 = private unnamed_addr constant [36 x i8] c"illegal address for code patching 3\00", align 1

; Function Attrs: mustprogress nounwind uwtable
define hidden void @_ZN10NativeJump30check_verified_entry_alignmentEPhS0_(ptr noundef %0, ptr noundef %1) #1 align 2 {
  %3 = alloca ptr, align 8
  %4 = alloca ptr, align 8
  %5 = alloca i32, align 4
  store ptr %0, ptr %3, align 8
  store ptr %1, ptr %4, align 8
  store i32 64, ptr %5, align 4
  br label %6

6:                                                ; preds = %2
  %7 = load ptr, ptr %4, align 8
  %8 = ptrtoint ptr %7 to i64
  %9 = and i64 %8, 7
  %10 = icmp eq i64 %9, 0
  br i1 %10, label %13, label %11

11:                                               ; preds = %6
  %12 = load ptr, ptr @g_assert_poison, align 8
  store i8 88, ptr %12, align 1
  call void (ptr, i32, ptr, ptr, ...) @_Z15report_vm_errorPKciS0_S0_z(ptr noundef @.str.4, i32 noundef 367, ptr noundef @.str.21, ptr noundef @.str.22) #4
  unreachable

13:                                               ; preds = %6
  br label %14

14:                                               ; preds = %13
  br label %15

15:                                               ; preds = %14
  %16 = load ptr, ptr %4, align 8
  %17 = ptrtoint ptr %16 to i64
  %18 = udiv i64 %17, 64
  %19 = load ptr, ptr %4, align 8
  %20 = ptrtoint ptr %19 to i64
  %21 = add i64 %20, 4
  %22 = udiv i64 %21, 64
  %23 = icmp eq i64 %18, %22
  br i1 %23, label %26, label %24

24:                                               ; preds = %15
  %25 = load ptr, ptr @g_assert_poison, align 8
  store i8 88, ptr %25, align 1
  call void (ptr, i32, ptr, ptr, ...) @_Z15report_vm_errorPKciS0_S0_z(ptr noundef @.str.4, i32 noundef 371, ptr noundef @.str.23, ptr noundef @.str.24) #4
  unreachable

26:                                               ; preds = %15
  br label %27

27:                                               ; preds = %26
  ret void
}