; Function Attrs: mustprogress nounwind uwtable
define hidden void @_ZN10NativeJump30check_verified_entry_alignmentEPhS0_(ptr nocapture noundef readnone %0, ptr noundef %1) local_unnamed_addr #0 align 2 {
  %3 = ptrtoint ptr %1 to i64
  %4 = and i64 %3, 7
  %5 = icmp eq i64 %4, 0
  br i1 %5, label %8, label %6

6:                                                ; preds = %2
  %7 = load ptr, ptr @g_assert_poison, align 8
  store i8 88, ptr %7, align 1
  tail call void (ptr, i32, ptr, ptr, ...) @_Z15report_vm_errorPKciS0_S0_z(ptr noundef nonnull @.str.4, i32 noundef 367, ptr noundef nonnull @.str.21, ptr noundef nonnull @.str.22) #8
  unreachable

8:                                                ; preds = %2
  ret void
}